; Function Attrs: nounwind uwtable
define internal void @lv_checkbox_constructor(ptr nocapture readnone %0, ptr noundef %1) #0 {
  %3 = getelementptr inbounds nuw i8, ptr %1, i64 64
  store ptr @.str.1, ptr %3, align 8, !tbaa !3
  %4 = getelementptr inbounds nuw i8, ptr %1, i64 72
  %5 = load i8, ptr %4, align 8
  %6 = or i8 %5, 1
  store i8 %6, ptr %4, align 8
  tail call void @lv_obj_add_flag(ptr noundef %1, i32 noundef 2) #5
  tail call void @lv_obj_add_flag(ptr noundef %1, i32 noundef 8) #5
  tail call void @lv_obj_add_flag(ptr noundef %1, i32 noundef 1024) #5
  tail call void @lv_obj_remove_flag(ptr noundef %1, i32 noundef 16) #5
  ret void
}